
testhaha.elf:     file format elf32-avr

Sections:
Idx Name          Size      VMA       LMA       File off  Algn
  0 .text         00000948  00000000  00000000  00000094  2**1
                  CONTENTS, ALLOC, LOAD, READONLY, CODE
  1 .data         00000046  00800060  00000948  000009dc  2**0
                  CONTENTS, ALLOC, LOAD, DATA
  2 .bss          0000000c  008000a6  008000a6  00000a22  2**0
                  ALLOC
  3 .comment      00000030  00000000  00000000  00000a22  2**0
                  CONTENTS, READONLY
  4 .note.gnu.avr.deviceinfo 0000003c  00000000  00000000  00000a54  2**2
                  CONTENTS, READONLY
  5 .debug_aranges 000000b0  00000000  00000000  00000a90  2**0
                  CONTENTS, READONLY, DEBUGGING
  6 .debug_info   0000133f  00000000  00000000  00000b40  2**0
                  CONTENTS, READONLY, DEBUGGING
  7 .debug_abbrev 000007e3  00000000  00000000  00001e7f  2**0
                  CONTENTS, READONLY, DEBUGGING
  8 .debug_line   000008ff  00000000  00000000  00002662  2**0
                  CONTENTS, READONLY, DEBUGGING
  9 .debug_frame  000001cc  00000000  00000000  00002f64  2**2
                  CONTENTS, READONLY, DEBUGGING
 10 .debug_str    00000657  00000000  00000000  00003130  2**0
                  CONTENTS, READONLY, DEBUGGING
 11 .debug_loc    00000ab0  00000000  00000000  00003787  2**0
                  CONTENTS, READONLY, DEBUGGING
 12 .debug_ranges 000000b8  00000000  00000000  00004237  2**0
                  CONTENTS, READONLY, DEBUGGING

Disassembly of section .text:

00000000 <__vectors>:
   0:	0c 94 34 00 	jmp	0x68	; 0x68 <__ctors_end>
   4:	0c 94 51 00 	jmp	0xa2	; 0xa2 <__bad_interrupt>
   8:	0c 94 51 00 	jmp	0xa2	; 0xa2 <__bad_interrupt>
   c:	0c 94 51 00 	jmp	0xa2	; 0xa2 <__bad_interrupt>
  10:	0c 94 51 00 	jmp	0xa2	; 0xa2 <__bad_interrupt>
  14:	0c 94 51 00 	jmp	0xa2	; 0xa2 <__bad_interrupt>
  18:	0c 94 51 00 	jmp	0xa2	; 0xa2 <__bad_interrupt>
  1c:	0c 94 51 00 	jmp	0xa2	; 0xa2 <__bad_interrupt>
  20:	0c 94 51 00 	jmp	0xa2	; 0xa2 <__bad_interrupt>
  24:	0c 94 51 00 	jmp	0xa2	; 0xa2 <__bad_interrupt>
  28:	0c 94 51 00 	jmp	0xa2	; 0xa2 <__bad_interrupt>
  2c:	0c 94 51 00 	jmp	0xa2	; 0xa2 <__bad_interrupt>
  30:	0c 94 51 00 	jmp	0xa2	; 0xa2 <__bad_interrupt>
  34:	0c 94 51 00 	jmp	0xa2	; 0xa2 <__bad_interrupt>
  38:	0c 94 51 00 	jmp	0xa2	; 0xa2 <__bad_interrupt>
  3c:	0c 94 51 00 	jmp	0xa2	; 0xa2 <__bad_interrupt>
  40:	0c 94 51 00 	jmp	0xa2	; 0xa2 <__bad_interrupt>
  44:	0c 94 51 00 	jmp	0xa2	; 0xa2 <__bad_interrupt>
  48:	0c 94 51 00 	jmp	0xa2	; 0xa2 <__bad_interrupt>
  4c:	0c 94 51 00 	jmp	0xa2	; 0xa2 <__bad_interrupt>
  50:	0c 94 51 00 	jmp	0xa2	; 0xa2 <__bad_interrupt>
  54:	71 00       	.word	0x0071	; ????
  56:	5f 00       	.word	0x005f	; ????
  58:	61 00       	.word	0x0061	; ????
  5a:	63 00       	.word	0x0063	; ????
  5c:	65 00       	.word	0x0065	; ????
  5e:	67 00       	.word	0x0067	; ????
  60:	69 00       	.word	0x0069	; ????
  62:	6b 00       	.word	0x006b	; ????
  64:	6d 00       	.word	0x006d	; ????
  66:	6f 00       	.word	0x006f	; ????

00000068 <__ctors_end>:
  68:	11 24       	eor	r1, r1
  6a:	1f be       	out	0x3f, r1	; 63
  6c:	cf e5       	ldi	r28, 0x5F	; 95
  6e:	d4 e0       	ldi	r29, 0x04	; 4
  70:	de bf       	out	0x3e, r29	; 62
  72:	cd bf       	out	0x3d, r28	; 61

00000074 <__do_copy_data>:
  74:	10 e0       	ldi	r17, 0x00	; 0
  76:	a0 e6       	ldi	r26, 0x60	; 96
  78:	b0 e0       	ldi	r27, 0x00	; 0
  7a:	e8 e4       	ldi	r30, 0x48	; 72
  7c:	f9 e0       	ldi	r31, 0x09	; 9
  7e:	02 c0       	rjmp	.+4      	; 0x84 <__do_copy_data+0x10>
  80:	05 90       	lpm	r0, Z+
  82:	0d 92       	st	X+, r0
  84:	a6 3a       	cpi	r26, 0xA6	; 166
  86:	b1 07       	cpc	r27, r17
  88:	d9 f7       	brne	.-10     	; 0x80 <__do_copy_data+0xc>

0000008a <__do_clear_bss>:
  8a:	20 e0       	ldi	r18, 0x00	; 0
  8c:	a6 ea       	ldi	r26, 0xA6	; 166
  8e:	b0 e0       	ldi	r27, 0x00	; 0
  90:	01 c0       	rjmp	.+2      	; 0x94 <.do_clear_bss_start>

00000092 <.do_clear_bss_loop>:
  92:	1d 92       	st	X+, r1

00000094 <.do_clear_bss_start>:
  94:	a2 3b       	cpi	r26, 0xB2	; 178
  96:	b2 07       	cpc	r27, r18
  98:	e1 f7       	brne	.-8      	; 0x92 <.do_clear_bss_loop>
  9a:	0e 94 09 04 	call	0x812	; 0x812 <main>
  9e:	0c 94 a2 04 	jmp	0x944	; 0x944 <_exit>

000000a2 <__bad_interrupt>:
  a2:	0c 94 00 00 	jmp	0	; 0x0 <__vectors>

000000a6 <_Z8LED7_OUTh>:
}

// --- HAM LED 7 THANH (GIU NGUYEN) ---
void LED7_OUT(unsigned char num)
{
	unsigned char current_dot = PORTC & 0B00000000;
  a6:	95 b3       	in	r25, 0x15	; 21
	unsigned char ma_led = 0xFF;
	switch(num) {
  a8:	90 e0       	ldi	r25, 0x00	; 0
  aa:	8a 30       	cpi	r24, 0x0A	; 10
  ac:	91 05       	cpc	r25, r1
  ae:	28 f4       	brcc	.+10     	; 0xba <_Z8LED7_OUTh+0x14>
  b0:	fc 01       	movw	r30, r24
  b2:	e6 5d       	subi	r30, 0xD6	; 214
  b4:	ff 4f       	sbci	r31, 0xFF	; 255
  b6:	0c 94 79 04 	jmp	0x8f2	; 0x8f2 <__tablejump2__>

// --- HAM LED 7 THANH (GIU NGUYEN) ---
void LED7_OUT(unsigned char num)
{
	unsigned char current_dot = PORTC & 0B00000000;
	unsigned char ma_led = 0xFF;
  ba:	8f ef       	ldi	r24, 0xFF	; 255
  bc:	13 c0       	rjmp	.+38     	; 0xe4 <_Z8LED7_OUTh+0x3e>
	switch(num) {
		case 0: ma_led = 0B10000000; break;
		case 1: ma_led = 0B11100011; break;
  be:	83 ee       	ldi	r24, 0xE3	; 227
  c0:	11 c0       	rjmp	.+34     	; 0xe4 <_Z8LED7_OUTh+0x3e>
		case 2: ma_led = 0B01000100; break;
  c2:	84 e4       	ldi	r24, 0x44	; 68
  c4:	0f c0       	rjmp	.+30     	; 0xe4 <_Z8LED7_OUTh+0x3e>
		case 3: ma_led = 0B01000001; break;
  c6:	81 e4       	ldi	r24, 0x41	; 65
  c8:	0d c0       	rjmp	.+26     	; 0xe4 <_Z8LED7_OUTh+0x3e>
		case 4: ma_led = 0B00100011; break;
  ca:	83 e2       	ldi	r24, 0x23	; 35
  cc:	0b c0       	rjmp	.+22     	; 0xe4 <_Z8LED7_OUTh+0x3e>
		case 5: ma_led = 0B00010001; break;
  ce:	81 e1       	ldi	r24, 0x11	; 17
  d0:	09 c0       	rjmp	.+18     	; 0xe4 <_Z8LED7_OUTh+0x3e>
		case 6: ma_led = 0B00010000; break;
  d2:	80 e1       	ldi	r24, 0x10	; 16
  d4:	07 c0       	rjmp	.+14     	; 0xe4 <_Z8LED7_OUTh+0x3e>
		case 7: ma_led = 0B11000011; break;
  d6:	83 ec       	ldi	r24, 0xC3	; 195
  d8:	05 c0       	rjmp	.+10     	; 0xe4 <_Z8LED7_OUTh+0x3e>
		case 8: ma_led = 0B00000000; break;
  da:	80 e0       	ldi	r24, 0x00	; 0
  dc:	03 c0       	rjmp	.+6      	; 0xe4 <_Z8LED7_OUTh+0x3e>
		case 9: ma_led = 0B00000001; break;
  de:	81 e0       	ldi	r24, 0x01	; 1
  e0:	01 c0       	rjmp	.+2      	; 0xe4 <_Z8LED7_OUTh+0x3e>
void LED7_OUT(unsigned char num)
{
	unsigned char current_dot = PORTC & 0B00000000;
	unsigned char ma_led = 0xFF;
	switch(num) {
		case 0: ma_led = 0B10000000; break;
  e2:	80 e8       	ldi	r24, 0x80	; 128
		case 6: ma_led = 0B00010000; break;
		case 7: ma_led = 0B11000011; break;
		case 8: ma_led = 0B00000000; break;
		case 9: ma_led = 0B00000001; break;
	}
	ma_led &= 0B11110111;
  e4:	87 7f       	andi	r24, 0xF7	; 247
	PORTC = ma_led | current_dot;
  e6:	85 bb       	out	0x15, r24	; 21
  e8:	08 95       	ret

000000ea <_Z10LCD_Enablev>:
}

// --- CAC HAM XU LY LCD (4-BIT) ---

void LCD_Enable() {
	LCD_PORT |= (1 << LCD_EN);
  ea:	8b b3       	in	r24, 0x1b	; 27
  ec:	88 60       	ori	r24, 0x08	; 8
  ee:	8b bb       	out	0x1b, r24	; 27
	#else
		//round up by default
		__ticks_dc = (uint32_t)(ceil(fabs(__tmp)));
	#endif

	__builtin_avr_delay_cycles(__ticks_dc);
  f0:	8a e1       	ldi	r24, 0x1A	; 26
  f2:	8a 95       	dec	r24
  f4:	f1 f7       	brne	.-4      	; 0xf2 <_Z10LCD_Enablev+0x8>
  f6:	00 c0       	rjmp	.+0      	; 0xf8 <_Z10LCD_Enablev+0xe>
	_delay_us(10);
	LCD_PORT &= ~(1 << LCD_EN);
  f8:	8b b3       	in	r24, 0x1b	; 27
  fa:	87 7f       	andi	r24, 0xF7	; 247
  fc:	8b bb       	out	0x1b, r24	; 27
  fe:	85 e8       	ldi	r24, 0x85	; 133
 100:	8a 95       	dec	r24
 102:	f1 f7       	brne	.-4      	; 0x100 <_Z10LCD_Enablev+0x16>
 104:	00 00       	nop
 106:	08 95       	ret

00000108 <_Z12LCD_Send4Bith>:
}

void LCD_Send4Bit(unsigned char Data) {
	// Chi thay doi 4 bit cao (PA4-PA7), giu nguyen PA0-PA3
	// PA0 là Input (VR1), PA1-PA3 la Control
	unsigned char current_control = LCD_PORT & 0x0F;
 108:	9b b3       	in	r25, 0x1b	; 27
 10a:	9f 70       	andi	r25, 0x0F	; 15
	LCD_PORT = (Data & 0xF0) | current_control;
 10c:	80 7f       	andi	r24, 0xF0	; 240
 10e:	98 2b       	or	r25, r24
 110:	9b bb       	out	0x1b, r25	; 27
	LCD_Enable();
 112:	0e 94 75 00 	call	0xea	; 0xea <_Z10LCD_Enablev>
 116:	08 95       	ret

00000118 <_Z11LCD_Commandh>:
}

void LCD_Command(unsigned char cmnd) {
 118:	cf 93       	push	r28
 11a:	c8 2f       	mov	r28, r24
	LCD_PORT &= ~(1 << LCD_RS); // RS = 0 (Lenh)
 11c:	8b b3       	in	r24, 0x1b	; 27
 11e:	8d 7f       	andi	r24, 0xFD	; 253
 120:	8b bb       	out	0x1b, r24	; 27
	// LCD_PORT &= ~(1 << LCD_RW); // RW = 0 (Ghi) // GND
	LCD_Send4Bit(cmnd);      // Gui 4 bit cao
 122:	8c 2f       	mov	r24, r28
 124:	0e 94 84 00 	call	0x108	; 0x108 <_Z12LCD_Send4Bith>
	LCD_Send4Bit(cmnd << 4); // Gui 4 bit thap
 128:	8c 2f       	mov	r24, r28
 12a:	82 95       	swap	r24
 12c:	80 7f       	andi	r24, 0xF0	; 240
 12e:	0e 94 84 00 	call	0x108	; 0x108 <_Z12LCD_Send4Bith>
	#else
		//round up by default
		__ticks_dc = (uint32_t)(ceil(fabs(__tmp)));
	#endif

	__builtin_avr_delay_cycles(__ticks_dc);
 132:	8f e9       	ldi	r24, 0x9F	; 159
 134:	9f e0       	ldi	r25, 0x0F	; 15
 136:	01 97       	sbiw	r24, 0x01	; 1
 138:	f1 f7       	brne	.-4      	; 0x136 <_Z11LCD_Commandh+0x1e>
 13a:	00 c0       	rjmp	.+0      	; 0x13c <_Z11LCD_Commandh+0x24>
 13c:	00 00       	nop
	_delay_ms(2);
}
 13e:	cf 91       	pop	r28
 140:	08 95       	ret

00000142 <_Z8LCD_Charh>:

void LCD_Char(unsigned char data) {
 142:	cf 93       	push	r28
 144:	c8 2f       	mov	r28, r24
	LCD_PORT |= (1 << LCD_RS);  // RS = 1 (Du lieu)
 146:	8b b3       	in	r24, 0x1b	; 27
 148:	82 60       	ori	r24, 0x02	; 2
 14a:	8b bb       	out	0x1b, r24	; 27
	// LCD_PORT &= ~(1 << LCD_RW); // RW = 0 (Ghi) //GND
	LCD_Send4Bit(data);
 14c:	8c 2f       	mov	r24, r28
 14e:	0e 94 84 00 	call	0x108	; 0x108 <_Z12LCD_Send4Bith>
	LCD_Send4Bit(data << 4);
 152:	8c 2f       	mov	r24, r28
 154:	82 95       	swap	r24
 156:	80 7f       	andi	r24, 0xF0	; 240
 158:	0e 94 84 00 	call	0x108	; 0x108 <_Z12LCD_Send4Bith>
	#else
		//round up by default
		__ticks_dc = (uint32_t)(ceil(fabs(__tmp)));
	#endif

	__builtin_avr_delay_cycles(__ticks_dc);
 15c:	85 e8       	ldi	r24, 0x85	; 133
 15e:	8a 95       	dec	r24
 160:	f1 f7       	brne	.-4      	; 0x15e <_Z8LCD_Charh+0x1c>
 162:	00 00       	nop
	_delay_us(50);
}
 164:	cf 91       	pop	r28
 166:	08 95       	ret

00000168 <_Z8LCD_Initv>:

void LCD_Init() {
	// PA1-PA7 là Output
	LCD_DDR |= 0xFA; //PA2 la input
 168:	8a b3       	in	r24, 0x1a	; 26
 16a:	8a 6f       	ori	r24, 0xFA	; 250
 16c:	8a bb       	out	0x1a, r24	; 26
	LCD_PORT &= 0x05; // Xoa output, giu PA0 (neu có pullup)
 16e:	8b b3       	in	r24, 0x1b	; 27
 170:	85 70       	andi	r24, 0x05	; 5
 172:	8b bb       	out	0x1b, r24	; 27
	#else
		//round up by default
		__ticks_dc = (uint32_t)(ceil(fabs(__tmp)));
	#endif

	__builtin_avr_delay_cycles(__ticks_dc);
 174:	8f e3       	ldi	r24, 0x3F	; 63
 176:	9c e9       	ldi	r25, 0x9C	; 156
 178:	01 97       	sbiw	r24, 0x01	; 1
 17a:	f1 f7       	brne	.-4      	; 0x178 <_Z8LCD_Initv+0x10>
 17c:	00 c0       	rjmp	.+0      	; 0x17e <_Z8LCD_Initv+0x16>
 17e:	00 00       	nop
	
	_delay_ms(20);
	LCD_Command(0x33); //Soft reset
 180:	83 e3       	ldi	r24, 0x33	; 51
 182:	0e 94 8c 00 	call	0x118	; 0x118 <_Z11LCD_Commandh>
	LCD_Command(0x32); //Chuyen sang 4 bit
 186:	82 e3       	ldi	r24, 0x32	; 50
 188:	0e 94 8c 00 	call	0x118	; 0x118 <_Z11LCD_Commandh>
	LCD_Command(0x28); // 4-bit, 2 lines
 18c:	88 e2       	ldi	r24, 0x28	; 40
 18e:	0e 94 8c 00 	call	0x118	; 0x118 <_Z11LCD_Commandh>
	LCD_Command(0x0C); // Bat hien thi, tat con tr?
 192:	8c e0       	ldi	r24, 0x0C	; 12
 194:	0e 94 8c 00 	call	0x118	; 0x118 <_Z11LCD_Commandh>
	LCD_Command(0x01); // Xoa man hinh
 198:	81 e0       	ldi	r24, 0x01	; 1
 19a:	0e 94 8c 00 	call	0x118	; 0x118 <_Z11LCD_Commandh>
 19e:	8f e9       	ldi	r24, 0x9F	; 159
 1a0:	9f e0       	ldi	r25, 0x0F	; 15
 1a2:	01 97       	sbiw	r24, 0x01	; 1
 1a4:	f1 f7       	brne	.-4      	; 0x1a2 <_Z8LCD_Initv+0x3a>
 1a6:	00 c0       	rjmp	.+0      	; 0x1a8 <_Z8LCD_Initv+0x40>
 1a8:	00 00       	nop
 1aa:	08 95       	ret

000001ac <_Z10LCD_StringPKc>:
	_delay_ms(2);
}

void LCD_String(const char *str) {
 1ac:	0f 93       	push	r16
 1ae:	1f 93       	push	r17
 1b0:	cf 93       	push	r28
 1b2:	df 93       	push	r29
 1b4:	8c 01       	movw	r16, r24
	for(int i = 0; str[i] != 0; i++) LCD_Char(str[i]);
 1b6:	c0 e0       	ldi	r28, 0x00	; 0
 1b8:	d0 e0       	ldi	r29, 0x00	; 0
 1ba:	f8 01       	movw	r30, r16
 1bc:	ec 0f       	add	r30, r28
 1be:	fd 1f       	adc	r31, r29
 1c0:	80 81       	ld	r24, Z
 1c2:	88 23       	and	r24, r24
 1c4:	21 f0       	breq	.+8      	; 0x1ce <_Z10LCD_StringPKc+0x22>
 1c6:	0e 94 a1 00 	call	0x142	; 0x142 <_Z8LCD_Charh>
 1ca:	21 96       	adiw	r28, 0x01	; 1
 1cc:	f6 cf       	rjmp	.-20     	; 0x1ba <_Z10LCD_StringPKc+0xe>
}
 1ce:	df 91       	pop	r29
 1d0:	cf 91       	pop	r28
 1d2:	1f 91       	pop	r17
 1d4:	0f 91       	pop	r16
 1d6:	08 95       	ret

000001d8 <_Z8LCD_Gotohh>:

void LCD_Goto(unsigned char x, unsigned char y) {
 1d8:	cf 93       	push	r28
 1da:	df 93       	push	r29
 1dc:	00 d0       	rcall	.+0      	; 0x1de <_Z8LCD_Gotohh+0x6>
 1de:	cd b7       	in	r28, 0x3d	; 61
 1e0:	de b7       	in	r29, 0x3e	; 62
	unsigned char address[] = {0x80, 0xC0};
 1e2:	90 e8       	ldi	r25, 0x80	; 128
 1e4:	99 83       	std	Y+1, r25	; 0x01
 1e6:	90 ec       	ldi	r25, 0xC0	; 192
 1e8:	9a 83       	std	Y+2, r25	; 0x02
	LCD_Command(address[x] + y);
 1ea:	e1 e0       	ldi	r30, 0x01	; 1
 1ec:	f0 e0       	ldi	r31, 0x00	; 0
 1ee:	ec 0f       	add	r30, r28
 1f0:	fd 1f       	adc	r31, r29
 1f2:	e8 0f       	add	r30, r24
 1f4:	f1 1d       	adc	r31, r1
 1f6:	80 81       	ld	r24, Z
 1f8:	86 0f       	add	r24, r22
 1fa:	0e 94 8c 00 	call	0x118	; 0x118 <_Z11LCD_Commandh>
}
 1fe:	0f 90       	pop	r0
 200:	0f 90       	pop	r0
 202:	df 91       	pop	r29
 204:	cf 91       	pop	r28
 206:	08 95       	ret

00000208 <_Z17Update_LCD_Screenv>:

// Ham hien thi thong tin ra man hinh
void Update_LCD_Screen() {
 208:	cf 93       	push	r28
	// --- Dong 1: Mode X: Cnt: Y ---
	LCD_Goto(0, 0);
 20a:	60 e0       	ldi	r22, 0x00	; 0
 20c:	80 e0       	ldi	r24, 0x00	; 0
 20e:	0e 94 ec 00 	call	0x1d8	; 0x1d8 <_Z8LCD_Gotohh>
	
	LCD_String("(M");             // Mo ngoac va chu M
 212:	80 e6       	ldi	r24, 0x60	; 96
 214:	90 e0       	ldi	r25, 0x00	; 0
 216:	0e 94 d6 00 	call	0x1ac	; 0x1ac <_Z10LCD_StringPKc>
	LCD_Char(current_mode + '0'); // So che do
 21a:	80 91 ae 00 	lds	r24, 0x00AE	; 0x8000ae <current_mode>
 21e:	80 5d       	subi	r24, 0xD0	; 208
 220:	0e 94 a1 00 	call	0x142	; 0x142 <_Z8LCD_Charh>
	LCD_String(")");        // Dong ngoac va nhan dem
 224:	83 e6       	ldi	r24, 0x63	; 99
 226:	90 e0       	ldi	r25, 0x00	; 0
 228:	0e 94 d6 00 	call	0x1ac	; 0x1ac <_Z10LCD_StringPKc>
	LCD_Char(count + '0');        // So dem
 22c:	80 91 b0 00 	lds	r24, 0x00B0	; 0x8000b0 <count>
 230:	80 5d       	subi	r24, 0xD0	; 208
 232:	0e 94 a1 00 	call	0x142	; 0x142 <_Z8LCD_Charh>
	
	LCD_String(" A=");
 236:	85 e6       	ldi	r24, 0x65	; 101
 238:	90 e0       	ldi	r25, 0x00	; 0
 23a:	0e 94 d6 00 	call	0x1ac	; 0x1ac <_Z10LCD_StringPKc>
	if(air_quality >= 1000) LCD_Char((air_quality/1000)+'0');
 23e:	20 91 a6 00 	lds	r18, 0x00A6	; 0x8000a6 <__data_end>
 242:	30 91 a7 00 	lds	r19, 0x00A7	; 0x8000a7 <__data_end+0x1>
 246:	28 3e       	cpi	r18, 0xE8	; 232
 248:	83 e0       	ldi	r24, 0x03	; 3
 24a:	38 07       	cpc	r19, r24
 24c:	98 f0       	brcs	.+38     	; 0x274 <_Z17Update_LCD_Screenv+0x6c>
 24e:	36 95       	lsr	r19
 250:	27 95       	ror	r18
 252:	36 95       	lsr	r19
 254:	27 95       	ror	r18
 256:	36 95       	lsr	r19
 258:	27 95       	ror	r18
 25a:	a5 ec       	ldi	r26, 0xC5	; 197
 25c:	b0 e2       	ldi	r27, 0x20	; 32
 25e:	0e 94 7f 04 	call	0x8fe	; 0x8fe <__umulhisi3>
 262:	92 95       	swap	r25
 264:	82 95       	swap	r24
 266:	8f 70       	andi	r24, 0x0F	; 15
 268:	89 27       	eor	r24, r25
 26a:	9f 70       	andi	r25, 0x0F	; 15
 26c:	89 27       	eor	r24, r25
 26e:	80 5d       	subi	r24, 0xD0	; 208
 270:	0e 94 a1 00 	call	0x142	; 0x142 <_Z8LCD_Charh>
	LCD_Char(((air_quality/100)%10)+'0');
 274:	20 91 a6 00 	lds	r18, 0x00A6	; 0x8000a6 <__data_end>
 278:	30 91 a7 00 	lds	r19, 0x00A7	; 0x8000a7 <__data_end+0x1>
 27c:	36 95       	lsr	r19
 27e:	27 95       	ror	r18
 280:	36 95       	lsr	r19
 282:	27 95       	ror	r18
 284:	ab e7       	ldi	r26, 0x7B	; 123
 286:	b4 e1       	ldi	r27, 0x14	; 20
 288:	0e 94 7f 04 	call	0x8fe	; 0x8fe <__umulhisi3>
 28c:	ac 01       	movw	r20, r24
 28e:	56 95       	lsr	r21
 290:	47 95       	ror	r20
 292:	9a 01       	movw	r18, r20
 294:	ad ec       	ldi	r26, 0xCD	; 205
 296:	bc ec       	ldi	r27, 0xCC	; 204
 298:	0e 94 7f 04 	call	0x8fe	; 0x8fe <__umulhisi3>
 29c:	96 95       	lsr	r25
 29e:	87 95       	ror	r24
 2a0:	96 95       	lsr	r25
 2a2:	87 95       	ror	r24
 2a4:	96 95       	lsr	r25
 2a6:	87 95       	ror	r24
 2a8:	9c 01       	movw	r18, r24
 2aa:	22 0f       	add	r18, r18
 2ac:	33 1f       	adc	r19, r19
 2ae:	88 0f       	add	r24, r24
 2b0:	99 1f       	adc	r25, r25
 2b2:	88 0f       	add	r24, r24
 2b4:	99 1f       	adc	r25, r25
 2b6:	88 0f       	add	r24, r24
 2b8:	99 1f       	adc	r25, r25
 2ba:	82 0f       	add	r24, r18
 2bc:	93 1f       	adc	r25, r19
 2be:	9a 01       	movw	r18, r20
 2c0:	28 1b       	sub	r18, r24
 2c2:	39 0b       	sbc	r19, r25
 2c4:	c9 01       	movw	r24, r18
 2c6:	80 5d       	subi	r24, 0xD0	; 208
 2c8:	0e 94 a1 00 	call	0x142	; 0x142 <_Z8LCD_Charh>
	LCD_Char(((air_quality/10)%10)+'0');
 2cc:	20 91 a6 00 	lds	r18, 0x00A6	; 0x8000a6 <__data_end>
 2d0:	30 91 a7 00 	lds	r19, 0x00A7	; 0x8000a7 <__data_end+0x1>
 2d4:	ad ec       	ldi	r26, 0xCD	; 205
 2d6:	bc ec       	ldi	r27, 0xCC	; 204
 2d8:	0e 94 7f 04 	call	0x8fe	; 0x8fe <__umulhisi3>
 2dc:	ac 01       	movw	r20, r24
 2de:	56 95       	lsr	r21
 2e0:	47 95       	ror	r20
 2e2:	56 95       	lsr	r21
 2e4:	47 95       	ror	r20
 2e6:	56 95       	lsr	r21
 2e8:	47 95       	ror	r20
 2ea:	9a 01       	movw	r18, r20
 2ec:	0e 94 7f 04 	call	0x8fe	; 0x8fe <__umulhisi3>
 2f0:	96 95       	lsr	r25
 2f2:	87 95       	ror	r24
 2f4:	96 95       	lsr	r25
 2f6:	87 95       	ror	r24
 2f8:	96 95       	lsr	r25
 2fa:	87 95       	ror	r24
 2fc:	9c 01       	movw	r18, r24
 2fe:	22 0f       	add	r18, r18
 300:	33 1f       	adc	r19, r19
 302:	88 0f       	add	r24, r24
 304:	99 1f       	adc	r25, r25
 306:	88 0f       	add	r24, r24
 308:	99 1f       	adc	r25, r25
 30a:	88 0f       	add	r24, r24
 30c:	99 1f       	adc	r25, r25
 30e:	82 0f       	add	r24, r18
 310:	93 1f       	adc	r25, r19
 312:	9a 01       	movw	r18, r20
 314:	28 1b       	sub	r18, r24
 316:	39 0b       	sbc	r19, r25
 318:	c9 01       	movw	r24, r18
 31a:	80 5d       	subi	r24, 0xD0	; 208
 31c:	0e 94 a1 00 	call	0x142	; 0x142 <_Z8LCD_Charh>
	LCD_Char((air_quality%10)+'0');
 320:	40 91 a6 00 	lds	r20, 0x00A6	; 0x8000a6 <__data_end>
 324:	50 91 a7 00 	lds	r21, 0x00A7	; 0x8000a7 <__data_end+0x1>
 328:	9a 01       	movw	r18, r20
 32a:	ad ec       	ldi	r26, 0xCD	; 205
 32c:	bc ec       	ldi	r27, 0xCC	; 204
 32e:	0e 94 7f 04 	call	0x8fe	; 0x8fe <__umulhisi3>
 332:	96 95       	lsr	r25
 334:	87 95       	ror	r24
 336:	96 95       	lsr	r25
 338:	87 95       	ror	r24
 33a:	96 95       	lsr	r25
 33c:	87 95       	ror	r24
 33e:	9c 01       	movw	r18, r24
 340:	22 0f       	add	r18, r18
 342:	33 1f       	adc	r19, r19
 344:	88 0f       	add	r24, r24
 346:	99 1f       	adc	r25, r25
 348:	88 0f       	add	r24, r24
 34a:	99 1f       	adc	r25, r25
 34c:	88 0f       	add	r24, r24
 34e:	99 1f       	adc	r25, r25
 350:	82 0f       	add	r24, r18
 352:	93 1f       	adc	r25, r19
 354:	9a 01       	movw	r18, r20
 356:	28 1b       	sub	r18, r24
 358:	39 0b       	sbc	r19, r25
 35a:	c9 01       	movw	r24, r18
 35c:	80 5d       	subi	r24, 0xD0	; 208
 35e:	0e 94 a1 00 	call	0x142	; 0x142 <_Z8LCD_Charh>
	if(air_quality > 400) LCD_String(" BAD");
 362:	80 91 a6 00 	lds	r24, 0x00A6	; 0x8000a6 <__data_end>
 366:	90 91 a7 00 	lds	r25, 0x00A7	; 0x8000a7 <__data_end+0x1>
 36a:	81 39       	cpi	r24, 0x91	; 145
 36c:	91 40       	sbci	r25, 0x01	; 1
 36e:	28 f0       	brcs	.+10     	; 0x37a <_Z17Update_LCD_Screenv+0x172>
 370:	89 e6       	ldi	r24, 0x69	; 105
 372:	90 e0       	ldi	r25, 0x00	; 0
 374:	0e 94 d6 00 	call	0x1ac	; 0x1ac <_Z10LCD_StringPKc>
 378:	04 c0       	rjmp	.+8      	; 0x382 <_Z17Update_LCD_Screenv+0x17a>
	else LCD_String(" OK ");
 37a:	8e e6       	ldi	r24, 0x6E	; 110
 37c:	90 e0       	ldi	r25, 0x00	; 0
 37e:	0e 94 d6 00 	call	0x1ac	; 0x1ac <_Z10LCD_StringPKc>
	// In them vai khoang trang cuoi dong de xoa ky tu rac neu so nhay lung tung
	LCD_String("           ");
 382:	83 e7       	ldi	r24, 0x73	; 115
 384:	90 e0       	ldi	r25, 0x00	; 0
 386:	0e 94 d6 00 	call	0x1ac	; 0x1ac <_Z10LCD_StringPKc>

	// --- DONG 2: T: XX H: YY ---
	// MAU HIEN THI: "T:25C H:70%     "
	LCD_Goto(1, 0);
 38a:	60 e0       	ldi	r22, 0x00	; 0
 38c:	81 e0       	ldi	r24, 0x01	; 1
 38e:	0e 94 ec 00 	call	0x1d8	; 0x1d8 <_Z8LCD_Gotohh>
	
	LCD_String("  T=");
 392:	8f e7       	ldi	r24, 0x7F	; 127
 394:	90 e0       	ldi	r25, 0x00	; 0
 396:	0e 94 d6 00 	call	0x1ac	; 0x1ac <_Z10LCD_StringPKc>
	LCD_Char((dht_temp / 10) + '0'); // HANG CHUC
 39a:	80 91 a9 00 	lds	r24, 0x00A9	; 0x8000a9 <dht_temp>
 39e:	cd ec       	ldi	r28, 0xCD	; 205
 3a0:	8c 9f       	mul	r24, r28
 3a2:	81 2d       	mov	r24, r1
 3a4:	11 24       	eor	r1, r1
 3a6:	86 95       	lsr	r24
 3a8:	86 95       	lsr	r24
 3aa:	86 95       	lsr	r24
 3ac:	80 5d       	subi	r24, 0xD0	; 208
 3ae:	0e 94 a1 00 	call	0x142	; 0x142 <_Z8LCD_Charh>
	LCD_Char((dht_temp % 10) + '0'); // HANG DON VI
 3b2:	80 91 a9 00 	lds	r24, 0x00A9	; 0x8000a9 <dht_temp>
 3b6:	8c 9f       	mul	r24, r28
 3b8:	91 2d       	mov	r25, r1
 3ba:	11 24       	eor	r1, r1
 3bc:	96 95       	lsr	r25
 3be:	96 95       	lsr	r25
 3c0:	96 95       	lsr	r25
 3c2:	99 0f       	add	r25, r25
 3c4:	29 2f       	mov	r18, r25
 3c6:	22 0f       	add	r18, r18
 3c8:	22 0f       	add	r18, r18
 3ca:	92 0f       	add	r25, r18
 3cc:	89 1b       	sub	r24, r25
 3ce:	80 5d       	subi	r24, 0xD0	; 208
 3d0:	0e 94 a1 00 	call	0x142	; 0x142 <_Z8LCD_Charh>
	LCD_Char(0xDF); // Ky hieu "do PC"
 3d4:	8f ed       	ldi	r24, 0xDF	; 223
 3d6:	0e 94 a1 00 	call	0x142	; 0x142 <_Z8LCD_Charh>
	LCD_Char('C'); // DON VI DO C
 3da:	83 e4       	ldi	r24, 0x43	; 67
 3dc:	0e 94 a1 00 	call	0x142	; 0x142 <_Z8LCD_Charh>
	
	LCD_String(" H=");
 3e0:	84 e8       	ldi	r24, 0x84	; 132
 3e2:	90 e0       	ldi	r25, 0x00	; 0
 3e4:	0e 94 d6 00 	call	0x1ac	; 0x1ac <_Z10LCD_StringPKc>
	LCD_Char((dht_hum / 10) + '0');
 3e8:	80 91 a8 00 	lds	r24, 0x00A8	; 0x8000a8 <dht_hum>
 3ec:	8c 9f       	mul	r24, r28
 3ee:	81 2d       	mov	r24, r1
 3f0:	11 24       	eor	r1, r1
 3f2:	86 95       	lsr	r24
 3f4:	86 95       	lsr	r24
 3f6:	86 95       	lsr	r24
 3f8:	80 5d       	subi	r24, 0xD0	; 208
 3fa:	0e 94 a1 00 	call	0x142	; 0x142 <_Z8LCD_Charh>
	LCD_Char((dht_hum % 10) + '0');
 3fe:	80 91 a8 00 	lds	r24, 0x00A8	; 0x8000a8 <dht_hum>
 402:	8c 9f       	mul	r24, r28
 404:	c1 2d       	mov	r28, r1
 406:	11 24       	eor	r1, r1
 408:	c6 95       	lsr	r28
 40a:	c6 95       	lsr	r28
 40c:	c6 95       	lsr	r28
 40e:	cc 0f       	add	r28, r28
 410:	9c 2f       	mov	r25, r28
 412:	99 0f       	add	r25, r25
 414:	99 0f       	add	r25, r25
 416:	c9 0f       	add	r28, r25
 418:	8c 1b       	sub	r24, r28
 41a:	80 5d       	subi	r24, 0xD0	; 208
 41c:	0e 94 a1 00 	call	0x142	; 0x142 <_Z8LCD_Charh>
	LCD_Char('%'); // DON VI %
 420:	85 e2       	ldi	r24, 0x25	; 37
 422:	0e 94 a1 00 	call	0x142	; 0x142 <_Z8LCD_Charh>
	
	// XOA KY TU THUA CUOI DONG CHO SACH DEP
	LCD_String("      ");
 426:	88 e7       	ldi	r24, 0x78	; 120
 428:	90 e0       	ldi	r25, 0x00	; 0
 42a:	0e 94 d6 00 	call	0x1ac	; 0x1ac <_Z10LCD_StringPKc>
}
 42e:	cf 91       	pop	r28
 430:	08 95       	ret

00000432 <_Z13DHT_Read_DataPhS_>:

// --- Ham giao tiep DHT11 ---
uint8_t DHT_Read_Data(uint8_t *temperature, uint8_t *humidity)
{
 432:	0f 93       	push	r16
 434:	1f 93       	push	r17
 436:	cf 93       	push	r28
 438:	df 93       	push	r29
 43a:	00 d0       	rcall	.+0      	; 0x43c <_Z13DHT_Read_DataPhS_+0xa>
 43c:	00 d0       	rcall	.+0      	; 0x43e <_Z13DHT_Read_DataPhS_+0xc>
 43e:	1f 92       	push	r1
 440:	cd b7       	in	r28, 0x3d	; 61
 442:	de b7       	in	r29, 0x3e	; 62
 444:	8c 01       	movw	r16, r24
 446:	db 01       	movw	r26, r22
	uint8_t bits[5];
	uint8_t i, j = 0;

	// 1. Gui tin hieu Start
	DHT_DDR |= (1 << DHT_BIT);   // Output
 448:	87 b3       	in	r24, 0x17	; 23
 44a:	80 61       	ori	r24, 0x10	; 16
 44c:	87 bb       	out	0x17, r24	; 23
	DHT_PORT &= ~(1 << DHT_BIT); // Keo xuong 0
 44e:	88 b3       	in	r24, 0x18	; 24
 450:	8f 7e       	andi	r24, 0xEF	; 239
 452:	88 bb       	out	0x18, r24	; 24
 454:	8f e3       	ldi	r24, 0x3F	; 63
 456:	9c e9       	ldi	r25, 0x9C	; 156
 458:	01 97       	sbiw	r24, 0x01	; 1
 45a:	f1 f7       	brne	.-4      	; 0x458 <_Z13DHT_Read_DataPhS_+0x26>
 45c:	00 c0       	rjmp	.+0      	; 0x45e <_Z13DHT_Read_DataPhS_+0x2c>
 45e:	00 00       	nop
	_delay_ms(20);               // Giu it nhat 18ms
	DHT_PORT |= (1 << DHT_BIT);  // Keo len 1
 460:	98 b3       	in	r25, 0x18	; 24
 462:	90 61       	ori	r25, 0x10	; 16
 464:	98 bb       	out	0x18, r25	; 24
	DHT_DDR &= ~(1 << DHT_BIT);  // Chuyen sang Input de nghe
 466:	97 b3       	in	r25, 0x17	; 23
 468:	9f 7e       	andi	r25, 0xEF	; 239
 46a:	97 bb       	out	0x17, r25	; 23
	#else
		//round up by default
		__ticks_dc = (uint32_t)(ceil(fabs(__tmp)));
	#endif

	__builtin_avr_delay_cycles(__ticks_dc);
 46c:	9a e6       	ldi	r25, 0x6A	; 106
 46e:	9a 95       	dec	r25
 470:	f1 f7       	brne	.-4      	; 0x46e <__stack+0xf>
 472:	00 c0       	rjmp	.+0      	; 0x474 <__stack+0x15>

	// 2. Cho` DHT11 phan hoi (Check Pulse)
	_delay_us(40);
	if (DHT_PIN & (1 << DHT_BIT)) return 0; // Error: Khong thay DHT keo xuong
 474:	86 b3       	in	r24, 0x16	; 22
 476:	68 2f       	mov	r22, r24
 478:	60 71       	andi	r22, 0x10	; 16
 47a:	84 fd       	sbrc	r24, 4
 47c:	43 c0       	rjmp	.+134    	; 0x504 <__stack+0xa5>
 47e:	e5 ed       	ldi	r30, 0xD5	; 213
 480:	ea 95       	dec	r30
 482:	f1 f7       	brne	.-4      	; 0x480 <__stack+0x21>
 484:	00 00       	nop
	_delay_us(80);
	if (!(DHT_PIN & (1 << DHT_BIT))) return 0; // Loi: Khong thay DHT keo len
 486:	96 b3       	in	r25, 0x16	; 22
 488:	89 2f       	mov	r24, r25
 48a:	80 71       	andi	r24, 0x10	; 16
 48c:	94 ff       	sbrs	r25, 4
 48e:	3d c0       	rjmp	.+122    	; 0x50a <__stack+0xab>
 490:	f5 ed       	ldi	r31, 0xD5	; 213
 492:	fa 95       	dec	r31
 494:	f1 f7       	brne	.-4      	; 0x492 <__stack+0x33>
 496:	00 00       	nop
	_delay_us(80);

	// 3. Doc 40 bits du lieu (5 bytes)
	for (j = 0; j < 5; j++) {
 498:	80 e0       	ldi	r24, 0x00	; 0
 49a:	85 30       	cpi	r24, 0x05	; 5
 49c:	20 f5       	brcc	.+72     	; 0x4e6 <__stack+0x87>
 49e:	70 e0       	ldi	r23, 0x00	; 0
 4a0:	90 e0       	ldi	r25, 0x00	; 0
		uint8_t result = 0;
		for (i = 0; i < 8; i++) {
 4a2:	98 30       	cpi	r25, 0x08	; 8
 4a4:	b8 f4       	brcc	.+46     	; 0x4d4 <__stack+0x75>
			while (!(DHT_PIN & (1 << DHT_BIT))); // Cho` bit bat dau len 1
 4a6:	b4 9b       	sbis	0x16, 4	; 22
 4a8:	fe cf       	rjmp	.-4      	; 0x4a6 <__stack+0x47>
 4aa:	20 e5       	ldi	r18, 0x50	; 80
 4ac:	2a 95       	dec	r18
 4ae:	f1 f7       	brne	.-4      	; 0x4ac <__stack+0x4d>
			_delay_us(30); // Doi 30us de xem no la 0 hay 1
			if (DHT_PIN & (1 << DHT_BIT)) result |= (1 << (7 - i)); // Neu van la 1 => Bit 1
 4b0:	b4 9b       	sbis	0x16, 4	; 22
 4b2:	0c c0       	rjmp	.+24     	; 0x4cc <__stack+0x6d>
 4b4:	47 e0       	ldi	r20, 0x07	; 7
 4b6:	50 e0       	ldi	r21, 0x00	; 0
 4b8:	49 1b       	sub	r20, r25
 4ba:	51 09       	sbc	r21, r1
 4bc:	21 e0       	ldi	r18, 0x01	; 1
 4be:	30 e0       	ldi	r19, 0x00	; 0
 4c0:	02 c0       	rjmp	.+4      	; 0x4c6 <__stack+0x67>
 4c2:	22 0f       	add	r18, r18
 4c4:	33 1f       	adc	r19, r19
 4c6:	4a 95       	dec	r20
 4c8:	e2 f7       	brpl	.-8      	; 0x4c2 <__stack+0x63>
 4ca:	72 2b       	or	r23, r18
			while (DHT_PIN & (1 << DHT_BIT)); // Cho xuong 0 cho bit tiep theo
 4cc:	b4 99       	sbic	0x16, 4	; 22
 4ce:	fe cf       	rjmp	.-4      	; 0x4cc <__stack+0x6d>
	_delay_us(80);

	// 3. Doc 40 bits du lieu (5 bytes)
	for (j = 0; j < 5; j++) {
		uint8_t result = 0;
		for (i = 0; i < 8; i++) {
 4d0:	9f 5f       	subi	r25, 0xFF	; 255
 4d2:	e7 cf       	rjmp	.-50     	; 0x4a2 <__stack+0x43>
			while (!(DHT_PIN & (1 << DHT_BIT))); // Cho` bit bat dau len 1
			_delay_us(30); // Doi 30us de xem no la 0 hay 1
			if (DHT_PIN & (1 << DHT_BIT)) result |= (1 << (7 - i)); // Neu van la 1 => Bit 1
			while (DHT_PIN & (1 << DHT_BIT)); // Cho xuong 0 cho bit tiep theo
		}
		bits[j] = result;
 4d4:	e1 e0       	ldi	r30, 0x01	; 1
 4d6:	f0 e0       	ldi	r31, 0x00	; 0
 4d8:	ec 0f       	add	r30, r28
 4da:	fd 1f       	adc	r31, r29
 4dc:	e8 0f       	add	r30, r24
 4de:	f1 1d       	adc	r31, r1
 4e0:	70 83       	st	Z, r23
	_delay_us(80);
	if (!(DHT_PIN & (1 << DHT_BIT))) return 0; // Loi: Khong thay DHT keo len
	_delay_us(80);

	// 3. Doc 40 bits du lieu (5 bytes)
	for (j = 0; j < 5; j++) {
 4e2:	8f 5f       	subi	r24, 0xFF	; 255
 4e4:	da cf       	rjmp	.-76     	; 0x49a <__stack+0x3b>
		}
		bits[j] = result;
	}

	// 4. Kiem tra Checksum (Byte 5 = Tong 4 byte dau)
	if ((uint8_t)(bits[0] + bits[1] + bits[2] + bits[3]) == bits[4]) {
 4e6:	39 81       	ldd	r19, Y+1	; 0x01
 4e8:	8a 81       	ldd	r24, Y+2	; 0x02
 4ea:	2b 81       	ldd	r18, Y+3	; 0x03
 4ec:	9c 81       	ldd	r25, Y+4	; 0x04
 4ee:	83 0f       	add	r24, r19
 4f0:	82 0f       	add	r24, r18
 4f2:	89 0f       	add	r24, r25
 4f4:	9d 81       	ldd	r25, Y+5	; 0x05
 4f6:	89 13       	cpse	r24, r25
 4f8:	07 c0       	rjmp	.+14     	; 0x508 <__stack+0xa9>
		*humidity = bits[0];    // Byte 0 la do am nguyen
 4fa:	3c 93       	st	X, r19
		*temperature = bits[2]; // Byte 2 la nhiet do nguyen
 4fc:	f8 01       	movw	r30, r16
 4fe:	20 83       	st	Z, r18
		return 1; // Success
 500:	81 e0       	ldi	r24, 0x01	; 1
 502:	03 c0       	rjmp	.+6      	; 0x50a <__stack+0xab>
	DHT_PORT |= (1 << DHT_BIT);  // Keo len 1
	DHT_DDR &= ~(1 << DHT_BIT);  // Chuyen sang Input de nghe

	// 2. Cho` DHT11 phan hoi (Check Pulse)
	_delay_us(40);
	if (DHT_PIN & (1 << DHT_BIT)) return 0; // Error: Khong thay DHT keo xuong
 504:	80 e0       	ldi	r24, 0x00	; 0
 506:	01 c0       	rjmp	.+2      	; 0x50a <__stack+0xab>
	if ((uint8_t)(bits[0] + bits[1] + bits[2] + bits[3]) == bits[4]) {
		*humidity = bits[0];    // Byte 0 la do am nguyen
		*temperature = bits[2]; // Byte 2 la nhiet do nguyen
		return 1; // Success
	}
	return 0; // Sai Checksum
 508:	86 2f       	mov	r24, r22
}
 50a:	0f 90       	pop	r0
 50c:	0f 90       	pop	r0
 50e:	0f 90       	pop	r0
 510:	0f 90       	pop	r0
 512:	0f 90       	pop	r0
 514:	df 91       	pop	r29
 516:	cf 91       	pop	r28
 518:	1f 91       	pop	r17
 51a:	0f 91       	pop	r16
 51c:	08 95       	ret

0000051e <_Z8ADC_Initv>:
// HAM KHOI TAO ADC
void ADC_Init() {
	// REFS0=1: Vref = AVCC (5V)
	ADMUX = (1<<REFS0);
 51e:	80 e4       	ldi	r24, 0x40	; 64
 520:	87 b9       	out	0x07, r24	; 7
	// ADEN=1: Bat ADC. Chia xung 128 (8MHz/128 = 64kHz)
	ADCSRA = (1<<ADEN)|(1<<ADPS2)|(1<<ADPS1)|(1<<ADPS0);
 522:	87 e8       	ldi	r24, 0x87	; 135
 524:	86 b9       	out	0x06, r24	; 6
 526:	08 95       	ret

00000528 <_Z4INITv>:
}

// --- KHOI TAO ---
void INIT()
{
	DDRC = 0xFF; PORTC = 0xFF;
 528:	8f ef       	ldi	r24, 0xFF	; 255
 52a:	84 bb       	out	0x14, r24	; 20
 52c:	85 bb       	out	0x15, r24	; 21
	DDRD = 0xFF; PORTD = 0xFF;
 52e:	81 bb       	out	0x11, r24	; 17
 530:	82 bb       	out	0x12, r24	; 18
	DDRB = 0x00; PORTB = 0xFF;
 532:	17 ba       	out	0x17, r1	; 23
 534:	88 bb       	out	0x18, r24	; 24
	
	//Khoi tao LCD
	ADC_Init();
 536:	0e 94 8f 02 	call	0x51e	; 0x51e <_Z8ADC_Initv>
	LCD_Init();
 53a:	0e 94 b4 00 	call	0x168	; 0x168 <_Z8LCD_Initv>
 53e:	08 95       	ret

00000540 <_Z8ADC_Readh>:
	// ADEN=1: Bat ADC. Chia xung 128 (8MHz/128 = 64kHz)
	ADCSRA = (1<<ADEN)|(1<<ADPS2)|(1<<ADPS1)|(1<<ADPS0);
}
// HAM DOC ADC
uint16_t ADC_Read(uint8_t channel) {
	channel &= 0b00000111; // Loc kenh 0-7
 540:	87 70       	andi	r24, 0x07	; 7
	ADMUX = (ADMUX & 0xF8) | channel;
 542:	97 b1       	in	r25, 0x07	; 7
 544:	98 7f       	andi	r25, 0xF8	; 248
 546:	89 2b       	or	r24, r25
 548:	87 b9       	out	0x07, r24	; 7
	ADCSRA |= (1<<ADSC); // Bat dau chuyen doi
 54a:	86 b1       	in	r24, 0x06	; 6
 54c:	80 64       	ori	r24, 0x40	; 64
 54e:	86 b9       	out	0x06, r24	; 6
	while(!(ADCSRA & (1<<ADIF))); // Cho xong
 550:	34 9b       	sbis	0x06, 4	; 6
 552:	fe cf       	rjmp	.-4      	; 0x550 <_Z8ADC_Readh+0x10>
	ADCSRA |= (1<<ADIF); // Xoa co
 554:	86 b1       	in	r24, 0x06	; 6
 556:	80 61       	ori	r24, 0x10	; 16
 558:	86 b9       	out	0x06, r24	; 6
	return (ADC); // Tra ve gia tri 0-1023
 55a:	84 b1       	in	r24, 0x04	; 4
 55c:	95 b1       	in	r25, 0x05	; 5
 55e:	08 95       	ret

00000560 <_Z17delay_and_controli>:
	return 0;
}

// Tra ve 1 neu có nút an, tra ve 0 neu bình thuong
int delay_and_control(int ms)
{
 560:	0f 93       	push	r16
 562:	1f 93       	push	r17
 564:	cf 93       	push	r28
 566:	df 93       	push	r29
 568:	8c 01       	movw	r16, r24
	Update_LCD_Screen();
 56a:	0e 94 04 01 	call	0x208	; 0x208 <_Z17Update_LCD_Screenv>
	// Chia nho thoi gian delay thành tung goi 10ms
	for(int i = 0; i < ms; i += 10)
 56e:	c0 e0       	ldi	r28, 0x00	; 0
 570:	d0 e0       	ldi	r29, 0x00	; 0
 572:	c0 17       	cp	r28, r16
 574:	d1 07       	cpc	r29, r17
 576:	0c f0       	brlt	.+2      	; 0x57a <_Z17delay_and_controli+0x1a>
 578:	e5 c0       	rjmp	.+458    	; 0x744 <_Z17delay_and_controli+0x1e4>
	#else
		//round up by default
		__ticks_dc = (uint32_t)(ceil(fabs(__tmp)));
	#endif

	__builtin_avr_delay_cycles(__ticks_dc);
 57a:	8f e1       	ldi	r24, 0x1F	; 31
 57c:	9e e4       	ldi	r25, 0x4E	; 78
 57e:	01 97       	sbiw	r24, 0x01	; 1
 580:	f1 f7       	brne	.-4      	; 0x57e <_Z17delay_and_controli+0x1e>
 582:	00 c0       	rjmp	.+0      	; 0x584 <_Z17delay_and_controli+0x24>
 584:	00 00       	nop
	{
		_delay_ms(10);
		
		// --- LOGIC DOC CAM BIEN ---
		sensor_timer++;
 586:	80 91 aa 00 	lds	r24, 0x00AA	; 0x8000aa <sensor_timer>
 58a:	90 91 ab 00 	lds	r25, 0x00AB	; 0x8000ab <sensor_timer+0x1>
 58e:	01 96       	adiw	r24, 0x01	; 1
 590:	90 93 ab 00 	sts	0x00AB, r25	; 0x8000ab <sensor_timer+0x1>
 594:	80 93 aa 00 	sts	0x00AA, r24	; 0x8000aa <sensor_timer>
		if(sensor_timer % 200 == 0) {
 598:	68 ec       	ldi	r22, 0xC8	; 200
 59a:	70 e0       	ldi	r23, 0x00	; 0
 59c:	0e 94 65 04 	call	0x8ca	; 0x8ca <__divmodhi4>
 5a0:	89 2b       	or	r24, r25
 5a2:	69 f4       	brne	.+26     	; 0x5be <_Z17delay_and_controli+0x5e>
			DHT_Read_Data(&dht_temp, &dht_hum);
 5a4:	68 ea       	ldi	r22, 0xA8	; 168
 5a6:	70 e0       	ldi	r23, 0x00	; 0
 5a8:	89 ea       	ldi	r24, 0xA9	; 169
 5aa:	90 e0       	ldi	r25, 0x00	; 0
 5ac:	0e 94 19 02 	call	0x432	; 0x432 <_Z13DHT_Read_DataPhS_>
			air_quality = ADC_Read(2); // Doc MQ-135 o chan PA2
 5b0:	82 e0       	ldi	r24, 0x02	; 2
 5b2:	0e 94 a0 02 	call	0x540	; 0x540 <_Z8ADC_Readh>
 5b6:	90 93 a7 00 	sts	0x00A7, r25	; 0x8000a7 <__data_end+0x1>
 5ba:	80 93 a6 00 	sts	0x00A6, r24	; 0x8000a6 <__data_end>
		}
		if(sensor_timer >= 400) {
 5be:	80 91 aa 00 	lds	r24, 0x00AA	; 0x8000aa <sensor_timer>
 5c2:	90 91 ab 00 	lds	r25, 0x00AB	; 0x8000ab <sensor_timer+0x1>
 5c6:	80 39       	cpi	r24, 0x90	; 144
 5c8:	91 40       	sbci	r25, 0x01	; 1
 5ca:	24 f0       	brlt	.+8      	; 0x5d4 <_Z17delay_and_controli+0x74>
			sensor_timer = 0;
 5cc:	10 92 ab 00 	sts	0x00AB, r1	; 0x8000ab <sensor_timer+0x1>
 5d0:	10 92 aa 00 	sts	0x00AA, r1	; 0x8000aa <sensor_timer>
		}
		// 1. XU LY DEM TU DONG (Cho Mode 1 va 4)
		if(current_mode == 1 || current_mode == 4)
 5d4:	80 91 ae 00 	lds	r24, 0x00AE	; 0x8000ae <current_mode>
 5d8:	90 91 af 00 	lds	r25, 0x00AF	; 0x8000af <current_mode+0x1>
 5dc:	81 30       	cpi	r24, 0x01	; 1
 5de:	91 05       	cpc	r25, r1
 5e0:	19 f0       	breq	.+6      	; 0x5e8 <_Z17delay_and_controli+0x88>
 5e2:	84 30       	cpi	r24, 0x04	; 4
 5e4:	91 05       	cpc	r25, r1
 5e6:	d1 f5       	brne	.+116    	; 0x65c <_Z17delay_and_controli+0xfc>
		{
			timer_tick++;
 5e8:	20 91 ac 00 	lds	r18, 0x00AC	; 0x8000ac <timer_tick>
 5ec:	30 91 ad 00 	lds	r19, 0x00AD	; 0x8000ad <timer_tick+0x1>
 5f0:	2f 5f       	subi	r18, 0xFF	; 255
 5f2:	3f 4f       	sbci	r19, 0xFF	; 255
 5f4:	30 93 ad 00 	sts	0x00AD, r19	; 0x8000ad <timer_tick+0x1>
 5f8:	20 93 ac 00 	sts	0x00AC, r18	; 0x8000ac <timer_tick>
			if(timer_tick >= 100) // 10ms * 100 = 1000ms = 1 Giây
 5fc:	24 36       	cpi	r18, 0x64	; 100
 5fe:	31 05       	cpc	r19, r1
 600:	6c f1       	brlt	.+90     	; 0x65c <_Z17delay_and_controli+0xfc>
			{
				timer_tick = 0;
 602:	10 92 ad 00 	sts	0x00AD, r1	; 0x8000ad <timer_tick+0x1>
 606:	10 92 ac 00 	sts	0x00AC, r1	; 0x8000ac <timer_tick>
				if(current_mode == 1) { // Auto Xuôi
 60a:	01 97       	sbiw	r24, 0x01	; 1
 60c:	81 f4       	brne	.+32     	; 0x62e <_Z17delay_and_controli+0xce>
					count++;
 60e:	80 91 b0 00 	lds	r24, 0x00B0	; 0x8000b0 <count>
 612:	90 91 b1 00 	lds	r25, 0x00B1	; 0x8000b1 <count+0x1>
 616:	01 96       	adiw	r24, 0x01	; 1
 618:	90 93 b1 00 	sts	0x00B1, r25	; 0x8000b1 <count+0x1>
 61c:	80 93 b0 00 	sts	0x00B0, r24	; 0x8000b0 <count>
					if(count > 9) count = 0;
 620:	0a 97       	sbiw	r24, 0x0a	; 10
 622:	b4 f0       	brlt	.+44     	; 0x650 <_Z17delay_and_controli+0xf0>
 624:	10 92 b1 00 	sts	0x00B1, r1	; 0x8000b1 <count+0x1>
 628:	10 92 b0 00 	sts	0x00B0, r1	; 0x8000b0 <count>
 62c:	11 c0       	rjmp	.+34     	; 0x650 <_Z17delay_and_controli+0xf0>
				}
				else { // Auto Nguoc
					count--;
 62e:	80 91 b0 00 	lds	r24, 0x00B0	; 0x8000b0 <count>
 632:	90 91 b1 00 	lds	r25, 0x00B1	; 0x8000b1 <count+0x1>
 636:	01 97       	sbiw	r24, 0x01	; 1
 638:	90 93 b1 00 	sts	0x00B1, r25	; 0x8000b1 <count+0x1>
 63c:	80 93 b0 00 	sts	0x00B0, r24	; 0x8000b0 <count>
					if(count < 0) count = 9;
 640:	99 23       	and	r25, r25
 642:	34 f4       	brge	.+12     	; 0x650 <_Z17delay_and_controli+0xf0>
 644:	89 e0       	ldi	r24, 0x09	; 9
 646:	90 e0       	ldi	r25, 0x00	; 0
 648:	90 93 b1 00 	sts	0x00B1, r25	; 0x8000b1 <count+0x1>
 64c:	80 93 b0 00 	sts	0x00B0, r24	; 0x8000b0 <count>
				}
				LED7_OUT(count); // Cap nhat so moi giay
 650:	80 91 b0 00 	lds	r24, 0x00B0	; 0x8000b0 <count>
 654:	0e 94 53 00 	call	0xa6	; 0xa6 <_Z8LED7_OUTh>
				Update_LCD_Screen();
 658:	0e 94 04 01 	call	0x208	; 0x208 <_Z17Update_LCD_Screenv>
		}

		// 2. XU LY NUT NHAN (CHUYEN MODE & CHINH TAY)
		
		// --- Nut 1: Auto Xuoi ---
		if(bit_is_clear(PINB, BTN_1)) {
 65c:	b0 99       	sbic	0x16, 0	; 22
 65e:	0b c0       	rjmp	.+22     	; 0x676 <_Z17delay_and_controli+0x116>
			current_mode = 1;
 660:	81 e0       	ldi	r24, 0x01	; 1
 662:	90 e0       	ldi	r25, 0x00	; 0
 664:	90 93 af 00 	sts	0x00AF, r25	; 0x8000af <current_mode+0x1>
 668:	80 93 ae 00 	sts	0x00AE, r24	; 0x8000ae <current_mode>
			timer_tick = 0; // Reset b? ??m giây
 66c:	10 92 ad 00 	sts	0x00AD, r1	; 0x8000ad <timer_tick+0x1>
 670:	10 92 ac 00 	sts	0x00AC, r1	; 0x8000ac <timer_tick>
			return 1; // Bao hieu thoat hieu ?ng c?
 674:	69 c0       	rjmp	.+210    	; 0x748 <_Z17delay_and_controli+0x1e8>
		}
		
		// --- Nút 4: Auto Nguoc ---
		if(bit_is_clear(PINB, BTN_4)) {
 676:	b3 99       	sbic	0x16, 3	; 22
 678:	0d c0       	rjmp	.+26     	; 0x694 <_Z17delay_and_controli+0x134>
			current_mode = 4;
 67a:	84 e0       	ldi	r24, 0x04	; 4
 67c:	90 e0       	ldi	r25, 0x00	; 0
 67e:	90 93 af 00 	sts	0x00AF, r25	; 0x8000af <current_mode+0x1>
 682:	80 93 ae 00 	sts	0x00AE, r24	; 0x8000ae <current_mode>
			timer_tick = 0;
 686:	10 92 ad 00 	sts	0x00AD, r1	; 0x8000ad <timer_tick+0x1>
 68a:	10 92 ac 00 	sts	0x00AC, r1	; 0x8000ac <timer_tick>
			return 1;
 68e:	81 e0       	ldi	r24, 0x01	; 1
 690:	90 e0       	ldi	r25, 0x00	; 0
 692:	5a c0       	rjmp	.+180    	; 0x748 <_Z17delay_and_controli+0x1e8>
		}

		// --- Nút 2: Tang tay (Manual Up) ---
		if(bit_is_clear(PINB, BTN_2)) {
 694:	b1 99       	sbic	0x16, 1	; 22
 696:	28 c0       	rjmp	.+80     	; 0x6e8 <_Z17delay_and_controli+0x188>
 698:	8f e3       	ldi	r24, 0x3F	; 63
 69a:	9c e9       	ldi	r25, 0x9C	; 156
 69c:	01 97       	sbiw	r24, 0x01	; 1
 69e:	f1 f7       	brne	.-4      	; 0x69c <_Z17delay_and_controli+0x13c>
 6a0:	00 c0       	rjmp	.+0      	; 0x6a2 <_Z17delay_and_controli+0x142>
 6a2:	00 00       	nop
			_delay_ms(20); // Chong rung
			if(bit_is_clear(PINB, BTN_2)) {
 6a4:	b1 99       	sbic	0x16, 1	; 22
 6a6:	20 c0       	rjmp	.+64     	; 0x6e8 <_Z17delay_and_controli+0x188>
				// Neu chua o Mode 2 thì chuyen Mode, neu dang o Mode 2 roi thì tang so
				current_mode = 2;
 6a8:	82 e0       	ldi	r24, 0x02	; 2
 6aa:	90 e0       	ldi	r25, 0x00	; 0
 6ac:	90 93 af 00 	sts	0x00AF, r25	; 0x8000af <current_mode+0x1>
 6b0:	80 93 ae 00 	sts	0x00AE, r24	; 0x8000ae <current_mode>
				count++;
 6b4:	80 91 b0 00 	lds	r24, 0x00B0	; 0x8000b0 <count>
 6b8:	90 91 b1 00 	lds	r25, 0x00B1	; 0x8000b1 <count+0x1>
 6bc:	01 96       	adiw	r24, 0x01	; 1
 6be:	90 93 b1 00 	sts	0x00B1, r25	; 0x8000b1 <count+0x1>
 6c2:	80 93 b0 00 	sts	0x00B0, r24	; 0x8000b0 <count>
				if(count > 9) count = 0;
 6c6:	0a 97       	sbiw	r24, 0x0a	; 10
 6c8:	24 f0       	brlt	.+8      	; 0x6d2 <_Z17delay_and_controli+0x172>
 6ca:	10 92 b1 00 	sts	0x00B1, r1	; 0x8000b1 <count+0x1>
 6ce:	10 92 b0 00 	sts	0x00B0, r1	; 0x8000b0 <count>
				LED7_OUT(count); // Hien so ngay
 6d2:	80 91 b0 00 	lds	r24, 0x00B0	; 0x8000b0 <count>
 6d6:	0e 94 53 00 	call	0xa6	; 0xa6 <_Z8LED7_OUTh>
				Update_LCD_Screen();
 6da:	0e 94 04 01 	call	0x208	; 0x208 <_Z17Update_LCD_Screenv>
				while(bit_is_clear(PINB, BTN_2)); // Chua nha nút
 6de:	b1 9b       	sbis	0x16, 1	; 22
 6e0:	fe cf       	rjmp	.-4      	; 0x6de <_Z17delay_and_controli+0x17e>
				return 1; // Reset hieu ung ?? ch?y l?i t? ??u
 6e2:	81 e0       	ldi	r24, 0x01	; 1
 6e4:	90 e0       	ldi	r25, 0x00	; 0
 6e6:	30 c0       	rjmp	.+96     	; 0x748 <_Z17delay_and_controli+0x1e8>
			}
		}

		// --- Nút 3: Gi?m tay (Manual Down) ---
		if(bit_is_clear(PINB, BTN_3)) {
 6e8:	b2 99       	sbic	0x16, 2	; 22
 6ea:	2a c0       	rjmp	.+84     	; 0x740 <_Z17delay_and_controli+0x1e0>
 6ec:	8f e3       	ldi	r24, 0x3F	; 63
 6ee:	9c e9       	ldi	r25, 0x9C	; 156
 6f0:	01 97       	sbiw	r24, 0x01	; 1
 6f2:	f1 f7       	brne	.-4      	; 0x6f0 <_Z17delay_and_controli+0x190>
 6f4:	00 c0       	rjmp	.+0      	; 0x6f6 <_Z17delay_and_controli+0x196>
 6f6:	00 00       	nop
			_delay_ms(20);
			if(bit_is_clear(PINB, BTN_3)) {
 6f8:	b2 99       	sbic	0x16, 2	; 22
 6fa:	22 c0       	rjmp	.+68     	; 0x740 <_Z17delay_and_controli+0x1e0>
				current_mode = 3;
 6fc:	83 e0       	ldi	r24, 0x03	; 3
 6fe:	90 e0       	ldi	r25, 0x00	; 0
 700:	90 93 af 00 	sts	0x00AF, r25	; 0x8000af <current_mode+0x1>
 704:	80 93 ae 00 	sts	0x00AE, r24	; 0x8000ae <current_mode>
				count--;
 708:	80 91 b0 00 	lds	r24, 0x00B0	; 0x8000b0 <count>
 70c:	90 91 b1 00 	lds	r25, 0x00B1	; 0x8000b1 <count+0x1>
 710:	01 97       	sbiw	r24, 0x01	; 1
 712:	90 93 b1 00 	sts	0x00B1, r25	; 0x8000b1 <count+0x1>
 716:	80 93 b0 00 	sts	0x00B0, r24	; 0x8000b0 <count>
				if(count < 0) count = 9;
 71a:	99 23       	and	r25, r25
 71c:	34 f4       	brge	.+12     	; 0x72a <_Z17delay_and_controli+0x1ca>
 71e:	89 e0       	ldi	r24, 0x09	; 9
 720:	90 e0       	ldi	r25, 0x00	; 0
 722:	90 93 b1 00 	sts	0x00B1, r25	; 0x8000b1 <count+0x1>
 726:	80 93 b0 00 	sts	0x00B0, r24	; 0x8000b0 <count>
				LED7_OUT(count);
 72a:	80 91 b0 00 	lds	r24, 0x00B0	; 0x8000b0 <count>
 72e:	0e 94 53 00 	call	0xa6	; 0xa6 <_Z8LED7_OUTh>
				Update_LCD_Screen();
 732:	0e 94 04 01 	call	0x208	; 0x208 <_Z17Update_LCD_Screenv>
				while(bit_is_clear(PINB, BTN_3));
 736:	b2 9b       	sbis	0x16, 2	; 22
 738:	fe cf       	rjmp	.-4      	; 0x736 <_Z17delay_and_controli+0x1d6>
				return 1;
 73a:	81 e0       	ldi	r24, 0x01	; 1
 73c:	90 e0       	ldi	r25, 0x00	; 0
 73e:	04 c0       	rjmp	.+8      	; 0x748 <_Z17delay_and_controli+0x1e8>
// Tra ve 1 neu có nút an, tra ve 0 neu bình thuong
int delay_and_control(int ms)
{
	Update_LCD_Screen();
	// Chia nho thoi gian delay thành tung goi 10ms
	for(int i = 0; i < ms; i += 10)
 740:	2a 96       	adiw	r28, 0x0a	; 10
 742:	17 cf       	rjmp	.-466    	; 0x572 <_Z17delay_and_controli+0x12>
				while(bit_is_clear(PINB, BTN_3));
				return 1;
			}
		}
	}
	return 0; // Het thoi gian delay ma khong co nut nao duoc an
 744:	80 e0       	ldi	r24, 0x00	; 0
 746:	90 e0       	ldi	r25, 0x00	; 0
}
 748:	df 91       	pop	r29
 74a:	cf 91       	pop	r28
 74c:	1f 91       	pop	r17
 74e:	0f 91       	pop	r16
 750:	08 95       	ret

00000752 <_Z16Effect_1_Runningv>:

//Cac ham hieu ung (Su dung delay_and_control) ---

void Effect_1_Running() // Chay duoi
{
 752:	cf 93       	push	r28
 754:	df 93       	push	r29
	for(int i = 0; i < 8; i++) {
 756:	c0 e0       	ldi	r28, 0x00	; 0
 758:	d0 e0       	ldi	r29, 0x00	; 0
 75a:	c8 30       	cpi	r28, 0x08	; 8
 75c:	d1 05       	cpc	r29, r1
 75e:	94 f4       	brge	.+36     	; 0x784 <_Z16Effect_1_Runningv+0x32>
		PORTD = (unsigned char)~(1 << i); // Active Low
 760:	81 e0       	ldi	r24, 0x01	; 1
 762:	90 e0       	ldi	r25, 0x00	; 0
 764:	0c 2e       	mov	r0, r28
 766:	02 c0       	rjmp	.+4      	; 0x76c <_Z16Effect_1_Runningv+0x1a>
 768:	88 0f       	add	r24, r24
 76a:	99 1f       	adc	r25, r25
 76c:	0a 94       	dec	r0
 76e:	e2 f7       	brpl	.-8      	; 0x768 <_Z16Effect_1_Runningv+0x16>
 770:	80 95       	com	r24
 772:	82 bb       	out	0x12, r24	; 18
		if(delay_and_control(200)) return; // Neu có nút an -> thoat ngay
 774:	88 ec       	ldi	r24, 0xC8	; 200
 776:	90 e0       	ldi	r25, 0x00	; 0
 778:	0e 94 b0 02 	call	0x560	; 0x560 <_Z17delay_and_controli>
 77c:	89 2b       	or	r24, r25
 77e:	11 f4       	brne	.+4      	; 0x784 <_Z16Effect_1_Runningv+0x32>

//Cac ham hieu ung (Su dung delay_and_control) ---

void Effect_1_Running() // Chay duoi
{
	for(int i = 0; i < 8; i++) {
 780:	21 96       	adiw	r28, 0x01	; 1
 782:	eb cf       	rjmp	.-42     	; 0x75a <_Z16Effect_1_Runningv+0x8>
		PORTD = (unsigned char)~(1 << i); // Active Low
		if(delay_and_control(200)) return; // Neu có nút an -> thoat ngay
	}
}
 784:	df 91       	pop	r29
 786:	cf 91       	pop	r28
 788:	08 95       	ret

0000078a <_Z16Effect_2_Fillingv>:

void Effect_2_Filling() // Sang den
{
 78a:	1f 93       	push	r17
 78c:	cf 93       	push	r28
 78e:	df 93       	push	r29
	unsigned char pattern = 0;
	for(int i = 0; i < 8; i++) {
 790:	c0 e0       	ldi	r28, 0x00	; 0
 792:	d0 e0       	ldi	r29, 0x00	; 0
	}
}

void Effect_2_Filling() // Sang den
{
	unsigned char pattern = 0;
 794:	10 e0       	ldi	r17, 0x00	; 0
	for(int i = 0; i < 8; i++) {
 796:	c8 30       	cpi	r28, 0x08	; 8
 798:	d1 05       	cpc	r29, r1
 79a:	a4 f4       	brge	.+40     	; 0x7c4 <_Z16Effect_2_Fillingv+0x3a>
		pattern |= (1 << i);
 79c:	81 e0       	ldi	r24, 0x01	; 1
 79e:	90 e0       	ldi	r25, 0x00	; 0
 7a0:	0c 2e       	mov	r0, r28
 7a2:	02 c0       	rjmp	.+4      	; 0x7a8 <_Z16Effect_2_Fillingv+0x1e>
 7a4:	88 0f       	add	r24, r24
 7a6:	99 1f       	adc	r25, r25
 7a8:	0a 94       	dec	r0
 7aa:	e2 f7       	brpl	.-8      	; 0x7a4 <_Z16Effect_2_Fillingv+0x1a>
 7ac:	18 2b       	or	r17, r24
		PORTD = (unsigned char)~pattern;
 7ae:	81 2f       	mov	r24, r17
 7b0:	80 95       	com	r24
 7b2:	82 bb       	out	0x12, r24	; 18
		if(delay_and_control(200)) return;
 7b4:	88 ec       	ldi	r24, 0xC8	; 200
 7b6:	90 e0       	ldi	r25, 0x00	; 0
 7b8:	0e 94 b0 02 	call	0x560	; 0x560 <_Z17delay_and_controli>
 7bc:	89 2b       	or	r24, r25
 7be:	41 f4       	brne	.+16     	; 0x7d0 <_Z16Effect_2_Fillingv+0x46>
}

void Effect_2_Filling() // Sang den
{
	unsigned char pattern = 0;
	for(int i = 0; i < 8; i++) {
 7c0:	21 96       	adiw	r28, 0x01	; 1
 7c2:	e9 cf       	rjmp	.-46     	; 0x796 <_Z16Effect_2_Fillingv+0xc>
		pattern |= (1 << i);
		PORTD = (unsigned char)~pattern;
		if(delay_and_control(200)) return;
	}
	PORTD = 0xFF; // Tat
 7c4:	8f ef       	ldi	r24, 0xFF	; 255
 7c6:	82 bb       	out	0x12, r24	; 18
	if(delay_and_control(200)) return;
 7c8:	88 ec       	ldi	r24, 0xC8	; 200
 7ca:	90 e0       	ldi	r25, 0x00	; 0
 7cc:	0e 94 b0 02 	call	0x560	; 0x560 <_Z17delay_and_controli>
}
 7d0:	df 91       	pop	r29
 7d2:	cf 91       	pop	r28
 7d4:	1f 91       	pop	r17
 7d6:	08 95       	ret

000007d8 <_Z20Effect_3_Alternatingv>:

void Effect_3_Alternating() // Chan~ le?
{
	PORTD = (unsigned char)~0x55; // Cha~n
 7d8:	8a ea       	ldi	r24, 0xAA	; 170
 7da:	82 bb       	out	0x12, r24	; 18
	if(delay_and_control(300)) return;
 7dc:	8c e2       	ldi	r24, 0x2C	; 44
 7de:	91 e0       	ldi	r25, 0x01	; 1
 7e0:	0e 94 b0 02 	call	0x560	; 0x560 <_Z17delay_and_controli>
 7e4:	89 2b       	or	r24, r25
 7e6:	31 f4       	brne	.+12     	; 0x7f4 <_Z20Effect_3_Alternatingv+0x1c>
	PORTD = (unsigned char)~0xAA; // Le?
 7e8:	85 e5       	ldi	r24, 0x55	; 85
 7ea:	82 bb       	out	0x12, r24	; 18
	if(delay_and_control(300)) return;
 7ec:	8c e2       	ldi	r24, 0x2C	; 44
 7ee:	91 e0       	ldi	r25, 0x01	; 1
 7f0:	0e 94 b0 02 	call	0x560	; 0x560 <_Z17delay_and_controli>
 7f4:	08 95       	ret

000007f6 <_Z15Effect_4_Strobev>:
}

void Effect_4_Strobe() // Nhay loanxa (cho chu so dem nguoc)
{
	PORTD = 0x00; // Sang het
 7f6:	12 ba       	out	0x12, r1	; 18
	if(delay_and_control(50)) return;
 7f8:	82 e3       	ldi	r24, 0x32	; 50
 7fa:	90 e0       	ldi	r25, 0x00	; 0
 7fc:	0e 94 b0 02 	call	0x560	; 0x560 <_Z17delay_and_controli>
 800:	89 2b       	or	r24, r25
 802:	31 f4       	brne	.+12     	; 0x810 <_Z15Effect_4_Strobev+0x1a>
	PORTD = 0xFF; // Tat het
 804:	8f ef       	ldi	r24, 0xFF	; 255
 806:	82 bb       	out	0x12, r24	; 18
	if(delay_and_control(50)) return;
 808:	82 e3       	ldi	r24, 0x32	; 50
 80a:	90 e0       	ldi	r25, 0x00	; 0
 80c:	0e 94 b0 02 	call	0x560	; 0x560 <_Z17delay_and_controli>
 810:	08 95       	ret

00000812 <main>:
void Effect_3_Alternating();
void Effect_4_Strobe();

int main()
{
	INIT();
 812:	0e 94 94 02 	call	0x528	; 0x528 <_Z4INITv>
	current_mode = 0; // Mac dinh vào là so 0, không làm gì
 816:	10 92 af 00 	sts	0x00AF, r1	; 0x8000af <current_mode+0x1>
 81a:	10 92 ae 00 	sts	0x00AE, r1	; 0x8000ae <current_mode>
	count = 0;
 81e:	10 92 b1 00 	sts	0x00B1, r1	; 0x8000b1 <count+0x1>
 822:	10 92 b0 00 	sts	0x00B0, r1	; 0x8000b0 <count>
	
	// Man hinh chao mung
	LCD_Goto(0, 2);
 826:	62 e0       	ldi	r22, 0x02	; 2
 828:	80 e0       	ldi	r24, 0x00	; 0
 82a:	0e 94 ec 00 	call	0x1d8	; 0x1d8 <_Z8LCD_Gotohh>
	LCD_String("20224189-K67");
 82e:	88 e8       	ldi	r24, 0x88	; 136
 830:	90 e0       	ldi	r25, 0x00	; 0
 832:	0e 94 d6 00 	call	0x1ac	; 0x1ac <_Z10LCD_StringPKc>
	LCD_Goto(1, 0);
 836:	60 e0       	ldi	r22, 0x00	; 0
 838:	81 e0       	ldi	r24, 0x01	; 1
 83a:	0e 94 ec 00 	call	0x1d8	; 0x1d8 <_Z8LCD_Gotohh>
	LCD_String("18-Le Minh Tuan");
 83e:	85 e9       	ldi	r24, 0x95	; 149
 840:	90 e0       	ldi	r25, 0x00	; 0
 842:	0e 94 d6 00 	call	0x1ac	; 0x1ac <_Z10LCD_StringPKc>
 846:	2f ef       	ldi	r18, 0xFF	; 255
 848:	83 ed       	ldi	r24, 0xD3	; 211
 84a:	90 e3       	ldi	r25, 0x30	; 48
 84c:	21 50       	subi	r18, 0x01	; 1
 84e:	80 40       	sbci	r24, 0x00	; 0
 850:	90 40       	sbci	r25, 0x00	; 0
 852:	e1 f7       	brne	.-8      	; 0x84c <main+0x3a>
 854:	00 c0       	rjmp	.+0      	; 0x856 <main+0x44>
 856:	00 00       	nop
	_delay_ms(2000); // Cho cam bien nong
	//Doc thu 1 lan dau tien
	DHT_Read_Data(&dht_temp, &dht_hum);
 858:	68 ea       	ldi	r22, 0xA8	; 168
 85a:	70 e0       	ldi	r23, 0x00	; 0
 85c:	89 ea       	ldi	r24, 0xA9	; 169
 85e:	90 e0       	ldi	r25, 0x00	; 0
 860:	0e 94 19 02 	call	0x432	; 0x432 <_Z13DHT_Read_DataPhS_>
 864:	2f ef       	ldi	r18, 0xFF	; 255
 866:	89 e6       	ldi	r24, 0x69	; 105
 868:	98 e1       	ldi	r25, 0x18	; 24
 86a:	21 50       	subi	r18, 0x01	; 1
 86c:	80 40       	sbci	r24, 0x00	; 0
 86e:	90 40       	sbci	r25, 0x00	; 0
 870:	e1 f7       	brne	.-8      	; 0x86a <main+0x58>
 872:	00 c0       	rjmp	.+0      	; 0x874 <main+0x62>
 874:	00 00       	nop
	_delay_ms(1000);
	
	while(1)
	{
		// Luôn hien thi so ra LED 7 thanh
		LED7_OUT(count);
 876:	80 91 b0 00 	lds	r24, 0x00B0	; 0x8000b0 <count>
 87a:	0e 94 53 00 	call	0xa6	; 0xa6 <_Z8LED7_OUTh>
		
		// Chay hieu ung voi Mode
		switch(current_mode)
 87e:	80 91 ae 00 	lds	r24, 0x00AE	; 0x8000ae <current_mode>
 882:	90 91 af 00 	lds	r25, 0x00AF	; 0x8000af <current_mode+0x1>
 886:	82 30       	cpi	r24, 0x02	; 2
 888:	91 05       	cpc	r25, r1
 88a:	b1 f0       	breq	.+44     	; 0x8b8 <main+0xa6>
 88c:	2c f4       	brge	.+10     	; 0x898 <main+0x86>
 88e:	00 97       	sbiw	r24, 0x00	; 0
 890:	49 f0       	breq	.+18     	; 0x8a4 <main+0x92>
 892:	01 97       	sbiw	r24, 0x01	; 1
 894:	71 f0       	breq	.+28     	; 0x8b2 <main+0xa0>
 896:	ef cf       	rjmp	.-34     	; 0x876 <main+0x64>
 898:	83 30       	cpi	r24, 0x03	; 3
 89a:	91 05       	cpc	r25, r1
 89c:	81 f0       	breq	.+32     	; 0x8be <main+0xac>
 89e:	04 97       	sbiw	r24, 0x04	; 4
 8a0:	89 f0       	breq	.+34     	; 0x8c4 <main+0xb2>
 8a2:	e9 cf       	rjmp	.-46     	; 0x876 <main+0x64>
		{
			case 0:
			PORTD = 0xFF; // Tat het 8 LED don (Active Low)
 8a4:	8f ef       	ldi	r24, 0xFF	; 255
 8a6:	82 bb       	out	0x12, r24	; 18
			// Goi hàm delay de quét nút nhan, nhung không chay hieu ung gi
			delay_and_control(100);
 8a8:	84 e6       	ldi	r24, 0x64	; 100
 8aa:	90 e0       	ldi	r25, 0x00	; 0
 8ac:	0e 94 b0 02 	call	0x560	; 0x560 <_Z17delay_and_controli>
			break;
 8b0:	e2 cf       	rjmp	.-60     	; 0x876 <main+0x64>
			case 1: Effect_1_Running(); break;
 8b2:	0e 94 a9 03 	call	0x752	; 0x752 <_Z16Effect_1_Runningv>
 8b6:	df cf       	rjmp	.-66     	; 0x876 <main+0x64>
			case 2: Effect_2_Filling(); break;
 8b8:	0e 94 c5 03 	call	0x78a	; 0x78a <_Z16Effect_2_Fillingv>
 8bc:	dc cf       	rjmp	.-72     	; 0x876 <main+0x64>
			case 3: Effect_3_Alternating(); break;
 8be:	0e 94 ec 03 	call	0x7d8	; 0x7d8 <_Z20Effect_3_Alternatingv>
 8c2:	d9 cf       	rjmp	.-78     	; 0x876 <main+0x64>
			case 4: Effect_4_Strobe(); break;
 8c4:	0e 94 fb 03 	call	0x7f6	; 0x7f6 <_Z15Effect_4_Strobev>
 8c8:	d6 cf       	rjmp	.-84     	; 0x876 <main+0x64>

000008ca <__divmodhi4>:
 8ca:	97 fb       	bst	r25, 7
 8cc:	07 2e       	mov	r0, r23
 8ce:	16 f4       	brtc	.+4      	; 0x8d4 <__divmodhi4+0xa>
 8d0:	00 94       	com	r0
 8d2:	07 d0       	rcall	.+14     	; 0x8e2 <__divmodhi4_neg1>
 8d4:	77 fd       	sbrc	r23, 7
 8d6:	09 d0       	rcall	.+18     	; 0x8ea <__divmodhi4_neg2>
 8d8:	0e 94 8e 04 	call	0x91c	; 0x91c <__udivmodhi4>
 8dc:	07 fc       	sbrc	r0, 7
 8de:	05 d0       	rcall	.+10     	; 0x8ea <__divmodhi4_neg2>
 8e0:	3e f4       	brtc	.+14     	; 0x8f0 <__divmodhi4_exit>

000008e2 <__divmodhi4_neg1>:
 8e2:	90 95       	com	r25
 8e4:	81 95       	neg	r24
 8e6:	9f 4f       	sbci	r25, 0xFF	; 255
 8e8:	08 95       	ret

000008ea <__divmodhi4_neg2>:
 8ea:	70 95       	com	r23
 8ec:	61 95       	neg	r22
 8ee:	7f 4f       	sbci	r23, 0xFF	; 255

000008f0 <__divmodhi4_exit>:
 8f0:	08 95       	ret

000008f2 <__tablejump2__>:
 8f2:	ee 0f       	add	r30, r30
 8f4:	ff 1f       	adc	r31, r31
 8f6:	05 90       	lpm	r0, Z+
 8f8:	f4 91       	lpm	r31, Z
 8fa:	e0 2d       	mov	r30, r0
 8fc:	09 94       	ijmp

000008fe <__umulhisi3>:
 8fe:	a2 9f       	mul	r26, r18
 900:	b0 01       	movw	r22, r0
 902:	b3 9f       	mul	r27, r19
 904:	c0 01       	movw	r24, r0
 906:	a3 9f       	mul	r26, r19
 908:	70 0d       	add	r23, r0
 90a:	81 1d       	adc	r24, r1
 90c:	11 24       	eor	r1, r1
 90e:	91 1d       	adc	r25, r1
 910:	b2 9f       	mul	r27, r18
 912:	70 0d       	add	r23, r0
 914:	81 1d       	adc	r24, r1
 916:	11 24       	eor	r1, r1
 918:	91 1d       	adc	r25, r1
 91a:	08 95       	ret

0000091c <__udivmodhi4>:
 91c:	aa 1b       	sub	r26, r26
 91e:	bb 1b       	sub	r27, r27
 920:	51 e1       	ldi	r21, 0x11	; 17
 922:	07 c0       	rjmp	.+14     	; 0x932 <__udivmodhi4_ep>

00000924 <__udivmodhi4_loop>:
 924:	aa 1f       	adc	r26, r26
 926:	bb 1f       	adc	r27, r27
 928:	a6 17       	cp	r26, r22
 92a:	b7 07       	cpc	r27, r23
 92c:	10 f0       	brcs	.+4      	; 0x932 <__udivmodhi4_ep>
 92e:	a6 1b       	sub	r26, r22
 930:	b7 0b       	sbc	r27, r23

00000932 <__udivmodhi4_ep>:
 932:	88 1f       	adc	r24, r24
 934:	99 1f       	adc	r25, r25
 936:	5a 95       	dec	r21
 938:	a9 f7       	brne	.-22     	; 0x924 <__udivmodhi4_loop>
 93a:	80 95       	com	r24
 93c:	90 95       	com	r25
 93e:	bc 01       	movw	r22, r24
 940:	cd 01       	movw	r24, r26
 942:	08 95       	ret

00000944 <_exit>:
 944:	f8 94       	cli

00000946 <__stop_program>:
 946:	ff cf       	rjmp	.-2      	; 0x946 <__stop_program>
